CCS PCM C Compiler, Version 4.068, 62225               08-mai-16 13:33

               Filename: C:\Users\Ali\Desktop\PIC16F877 Calculator Code\code_finale\code_finale.lst

               ROM used: 746 words (9%)
                         Largest free fragment is 2048
               RAM used: 28 (8%) at main() level
                         42 (11%) worst case
               Stack:    5 locations

*
0000:  MOVLW  00
0001:  MOVWF  0A
0002:  GOTO   255
0003:  NOP
.................... #include "C:\Users\Ali\Desktop\PIC16F877 Calculator Code\code_finale\code_finale.h" 
.................... #include <16F877A.h> 
.................... //////// Standard Header file for the PIC16F877A device //////////////// 
.................... #device PIC16F877A 
.................... #list 
....................  
.................... #device adc=8 
....................  
.................... #FUSES NOWDT                 	//No Watch Dog Timer 
.................... #FUSES XT                    	//Crystal osc <= 4mhz 
.................... #FUSES NOPUT                 	//No Power Up Timer 
.................... #FUSES NOPROTECT             	//Code not protected from reading 
.................... #FUSES NODEBUG               	//No Debug mode for ICD 
.................... #FUSES NOBROWNOUT            	//No brownout reset 
.................... #FUSES NOLVP                 	//No low voltage prgming, B3(PIC16) or B5(PIC18) used for I/O 
.................... #FUSES NOCPD                 	//No EE protection 
.................... #FUSES WRT_50%               	//Lower half of Program Memory is Write Protected 
....................  
.................... #use delay(clock=4000000) 
*
0042:  MOVLW  3B
0043:  MOVWF  04
0044:  BCF    03.7
0045:  MOVF   00,W
0046:  BTFSC  03.2
0047:  GOTO   056
0048:  MOVLW  01
0049:  MOVWF  78
004A:  CLRF   77
004B:  DECFSZ 77,F
004C:  GOTO   04B
004D:  DECFSZ 78,F
004E:  GOTO   04A
004F:  MOVLW  4A
0050:  MOVWF  77
0051:  DECFSZ 77,F
0052:  GOTO   051
0053:  GOTO   054
0054:  DECFSZ 00,F
0055:  GOTO   048
0056:  RETLW  00
.................... #use rs232(baud=9600,parity=N,xmit=PIN_C6,rcv=PIN_C7,bits=8) 
....................  
....................  
.................... #define use_portb_kbd 
.................... #include <lcd.c> 
.................... /////////////////////////////////////////////////////////////////////////// 
.................... ////                             LCDD.C                                //// 
.................... ////                 Driver for common LCD modules                     //// 
.................... ////                                                                   //// 
.................... ////  lcd_init()   Must be called before any other function.           //// 
.................... ////                                                                   //// 
.................... ////  lcd_putc(c)  Will display c on the next position of the LCD.     //// 
.................... ////                     The following have special meaning:           //// 
.................... ////                      \f  Clear display                            //// 
.................... ////                      \n  Go to start of second line               //// 
.................... ////                      \b  Move back one position                   //// 
.................... ////                                                                   //// 
.................... ////  lcd_gotoxy(x,y) Set write position on LCD (upper left is 1,1)    //// 
.................... ////                                                                   //// 
.................... ////  lcd_getc(x,y)   Returns character at position x,y on LCD         //// 
.................... ////                                                                   //// 
.................... /////////////////////////////////////////////////////////////////////////// 
.................... ////        (C) Copyright 1996,2007 Custom Computer Services           //// 
.................... //// This source code may only be used by licensed users of the CCS C  //// 
.................... //// compiler.  This source code may only be distributed to other      //// 
.................... //// licensed users of the CCS C compiler.  No other use, reproduction //// 
.................... //// or distribution is permitted without written permission.          //// 
.................... //// Derivative programs created using this software in object code    //// 
.................... //// form are not restricted in any way.                               //// 
.................... /////////////////////////////////////////////////////////////////////////// 
....................  
.................... // As defined in the following structure the pin connection is as follows: 
.................... //     D0  enable 
.................... //     D1  rs 
.................... //     D2  rw 
.................... //     D4  D4 
.................... //     D5  D5 
.................... //     D6  D6 
.................... //     D7  D7 
.................... // 
.................... //   LCD pins D0-D3 are not used and PIC D3 is not used. 
....................  
.................... // Un-comment the following define to use port B 
.................... // #define use_portb_lcd TRUE 
....................  
....................  
.................... struct lcd_pin_map {                 // This structure is overlayed 
....................            BOOLEAN enable;           // on to an I/O port to gain 
....................            BOOLEAN rs;               // access to the LCD pins. 
....................            BOOLEAN rw;               // The bits are allocated from 
....................            BOOLEAN unused;           // low order up.  ENABLE will 
....................            int     data : 4;         // be pin B0. 
....................         } lcd; 
....................  
....................  
.................... #if defined use_portb_lcd 
....................    //#locate lcd = getenv("sfr:PORTB")    // This puts the entire structure over the port 
....................    #ifdef __pch__ 
....................     #locate lcd = 0xf81 
....................    #else 
....................     #locate lcd = 6 
....................    #endif 
....................    #define set_tris_lcd(x) set_tris_b(x) 
.................... #else 
....................    //#locate lcd = getenv("sfr:PORTD")    // This puts the entire structure over the port 
....................    #ifdef __pch__ 
....................     #locate lcd = 0xf83 
....................    #else 
....................     #locate lcd = 8 
....................    #endif 
....................    #define set_tris_lcd(x) set_tris_d(x) 
.................... #endif 
....................  
.................... #ifndef lcd_type 
.................... #define lcd_type 2           // 0=5x7, 1=5x10, 2=2 lines 
.................... #endif 
....................  
.................... #define lcd_line_two 0x40    // LCD RAM address for the second line 
....................  
....................  
.................... BYTE const LCD_INIT_STRING[4] = {0x20 | (lcd_type << 2), 0xc, 1, 6}; 
....................                              // These bytes need to be sent to the LCD 
....................                              // to start it up. 
....................  
....................  
....................                              // The following are used for setting 
....................                              // the I/O port direction register. 
....................  
.................... struct lcd_pin_map const LCD_WRITE = {0,0,0,0,0}; // For write mode all pins are out 
.................... struct lcd_pin_map const LCD_READ = {0,0,0,0,15}; // For read mode data pins are in 
....................  
....................  
....................  
.................... BYTE lcd_read_byte() { 
....................       BYTE low,high; 
....................       set_tris_lcd(LCD_READ); 
*
0064:  MOVLW  F0
0065:  BSF    03.5
0066:  MOVWF  08
....................       lcd.rw = 1; 
0067:  BCF    03.5
0068:  BSF    08.2
....................       delay_cycles(1); 
0069:  NOP
....................       lcd.enable = 1; 
006A:  BSF    08.0
....................       delay_cycles(1); 
006B:  NOP
....................       high = lcd.data; 
006C:  MOVF   08,W
006D:  SWAPF  08,W
006E:  ANDLW  0F
006F:  MOVWF  42
....................       lcd.enable = 0; 
0070:  BCF    08.0
....................       delay_cycles(1); 
0071:  NOP
....................       lcd.enable = 1; 
0072:  BSF    08.0
....................       delay_us(1); 
0073:  NOP
....................       low = lcd.data; 
0074:  MOVF   08,W
0075:  SWAPF  08,W
0076:  ANDLW  0F
0077:  MOVWF  41
....................       lcd.enable = 0; 
0078:  BCF    08.0
....................       set_tris_lcd(LCD_WRITE); 
0079:  MOVLW  00
007A:  BSF    03.5
007B:  MOVWF  08
....................       return( (high<<4) | low); 
007C:  BCF    03.5
007D:  SWAPF  42,W
007E:  MOVWF  77
007F:  MOVLW  F0
0080:  ANDWF  77,F
0081:  MOVF   77,W
0082:  IORWF  41,W
0083:  MOVWF  78
.................... } 
....................  
....................  
.................... void lcd_send_nibble( BYTE n ) { 
....................       lcd.data = n; 
*
0057:  SWAPF  42,W
0058:  ANDLW  F0
0059:  MOVWF  77
005A:  MOVLW  0F
005B:  ANDWF  08,W
005C:  IORWF  77,W
005D:  MOVWF  08
....................       delay_cycles(1); 
005E:  NOP
....................       lcd.enable = 1; 
005F:  BSF    08.0
....................       delay_us(2); 
0060:  GOTO   061
....................       lcd.enable = 0; 
0061:  BCF    08.0
.................... } 
0062:  RETLW  00
....................  
....................  
.................... void lcd_send_byte( BYTE address, BYTE n ) { 
....................  
....................       lcd.rs = 0; 
0063:  BCF    08.1
....................       while ( bit_test(lcd_read_byte(),7) ) ; 
*
0084:  MOVF   78,W
0085:  MOVWF  41
0086:  BTFSC  41.7
0087:  GOTO   064
....................       lcd.rs = address; 
0088:  BTFSS  3F.0
0089:  BCF    08.1
008A:  BTFSC  3F.0
008B:  BSF    08.1
....................       delay_cycles(1); 
008C:  NOP
....................       lcd.rw = 0; 
008D:  BCF    08.2
....................       delay_cycles(1); 
008E:  NOP
....................       lcd.enable = 0; 
008F:  BCF    08.0
....................       lcd_send_nibble(n >> 4); 
0090:  SWAPF  40,W
0091:  MOVWF  41
0092:  MOVLW  0F
0093:  ANDWF  41,F
0094:  MOVF   41,W
0095:  MOVWF  42
0096:  CALL   057
....................       lcd_send_nibble(n & 0xf); 
0097:  MOVF   40,W
0098:  ANDLW  0F
0099:  MOVWF  41
009A:  MOVWF  42
009B:  CALL   057
.................... } 
009C:  RETLW  00
....................  
....................  
.................... void lcd_init() { 
....................     BYTE i; 
....................     set_tris_lcd(LCD_WRITE); 
009D:  MOVLW  00
009E:  BSF    03.5
009F:  MOVWF  08
....................     lcd.rs = 0; 
00A0:  BCF    03.5
00A1:  BCF    08.1
....................     lcd.rw = 0; 
00A2:  BCF    08.2
....................     lcd.enable = 0; 
00A3:  BCF    08.0
....................     delay_ms(15); 
00A4:  MOVLW  0F
00A5:  MOVWF  3B
00A6:  CALL   042
....................     for(i=1;i<=3;++i) { 
00A7:  MOVLW  01
00A8:  MOVWF  38
00A9:  MOVF   38,W
00AA:  SUBLW  03
00AB:  BTFSS  03.0
00AC:  GOTO   0B5
....................        lcd_send_nibble(3); 
00AD:  MOVLW  03
00AE:  MOVWF  42
00AF:  CALL   057
....................        delay_ms(5); 
00B0:  MOVLW  05
00B1:  MOVWF  3B
00B2:  CALL   042
....................     } 
00B3:  INCF   38,F
00B4:  GOTO   0A9
....................     lcd_send_nibble(2); 
00B5:  MOVLW  02
00B6:  MOVWF  42
00B7:  CALL   057
....................     for(i=0;i<=3;++i) 
00B8:  CLRF   38
00B9:  MOVF   38,W
00BA:  SUBLW  03
00BB:  BTFSS  03.0
00BC:  GOTO   0C6
....................        lcd_send_byte(0,LCD_INIT_STRING[i]); 
00BD:  MOVF   38,W
00BE:  CALL   004
00BF:  MOVWF  39
00C0:  CLRF   3F
00C1:  MOVF   39,W
00C2:  MOVWF  40
00C3:  CALL   063
00C4:  INCF   38,F
00C5:  GOTO   0B9
.................... } 
00C6:  RETLW  00
....................  
....................  
.................... void lcd_gotoxy( BYTE x, BYTE y) { 
....................    BYTE address; 
....................  
....................    if(y!=1) 
*
0169:  DECFSZ 3C,W
016A:  GOTO   16C
016B:  GOTO   16F
....................      address=lcd_line_two; 
016C:  MOVLW  40
016D:  MOVWF  3D
....................    else 
016E:  GOTO   170
....................      address=0; 
016F:  CLRF   3D
....................    address+=x-1; 
0170:  MOVLW  01
0171:  SUBWF  3B,W
0172:  ADDWF  3D,F
....................    lcd_send_byte(0,0x80|address); 
0173:  MOVF   3D,W
0174:  IORLW  80
0175:  MOVWF  3E
0176:  CLRF   3F
0177:  MOVF   3E,W
0178:  MOVWF  40
0179:  CALL   063
.................... } 
....................  
.................... void lcd_putc( char c) { 
....................    switch (c) { 
*
0152:  MOVF   3A,W
0153:  XORLW  0C
0154:  BTFSC  03.2
0155:  GOTO   15D
0156:  XORLW  06
0157:  BTFSC  03.2
0158:  GOTO   165
0159:  XORLW  02
015A:  BTFSC  03.2
015B:  GOTO   17B
015C:  GOTO   180
....................      case '\f'   : lcd_send_byte(0,1); 
015D:  CLRF   3F
015E:  MOVLW  01
015F:  MOVWF  40
0160:  CALL   063
....................                    delay_ms(2); 
0161:  MOVLW  02
0162:  MOVWF  3B
0163:  CALL   042
....................                                            break; 
0164:  GOTO   186
....................      case '\n'   : lcd_gotoxy(1,2);        break; 
0165:  MOVLW  01
0166:  MOVWF  3B
0167:  MOVLW  02
0168:  MOVWF  3C
*
017A:  GOTO   186
....................      case '\b'   : lcd_send_byte(0,0x10);  break; 
017B:  CLRF   3F
017C:  MOVLW  10
017D:  MOVWF  40
017E:  CALL   063
017F:  GOTO   186
....................      default     : lcd_send_byte(1,c);     break; 
0180:  MOVLW  01
0181:  MOVWF  3F
0182:  MOVF   3A,W
0183:  MOVWF  40
0184:  CALL   063
0185:  GOTO   186
....................    } 
.................... } 
0186:  RETLW  00
....................  
.................... char lcd_getc( BYTE x, BYTE y) { 
....................    char value; 
....................  
....................     lcd_gotoxy(x,y); 
....................     while ( bit_test(lcd_read_byte(),7) ); // wait until busy flag is low 
....................     lcd.rs=1; 
....................     value = lcd_read_byte(); 
....................     lcd.rs=0; 
....................     return(value); 
.................... } 
....................  
.................... #include <kbd.c> 
.................... /////////////////////////////////////////////////////////////////////////// 
.................... ////                             KBDD.C                                //// 
.................... ////                  Generic keypad scan driver                       //// 
.................... ////                                                                   //// 
.................... ////  kbd_init()   Must be called before any other function.           //// 
.................... ////                                                                   //// 
.................... ////  c = kbd_getc(c)  Will return a key value if pressed or /0 if not //// 
.................... ////                   This function should be called frequently so as //// 
.................... ////                   not to miss a key press.                        //// 
.................... ////                                                                   //// 
.................... /////////////////////////////////////////////////////////////////////////// 
.................... ////        (C) Copyright 1996,2003 Custom Computer Services           //// 
.................... //// This source code may only be used by licensed users of the CCS C  //// 
.................... //// compiler.  This source code may only be distributed to other      //// 
.................... //// licensed users of the CCS C compiler.  No other use, reproduction //// 
.................... //// or distribution is permitted without written permission.          //// 
.................... //// Derivative programs created using this software in object code    //// 
.................... //// form are not restricted in any way.                               //// 
.................... /////////////////////////////////////////////////////////////////////////// 
....................  
.................... ////////////////// The following defines the keypad layout on port D 
....................  
.................... // Un-comment the following define to use port B 
.................... // #define use_portb_kbd TRUE 
....................  
.................... // Make sure the port used has pull-up resistors (or the LCD) on 
.................... // the column pins 
....................  
....................  
.................... #if defined(__PCH__) 
.................... #if defined use_portb_kbd 
....................    #byte kbd = 0xF81                   // This puts the entire structure 
.................... #else 
....................    #byte kbd = 0xF83                   // This puts the entire structure 
.................... #endif 
.................... #else 
.................... #if defined use_portb_kbd 
....................    #byte kbd = 6                  // on to port B (at address 6) 
.................... #else 
....................    #byte kbd = 8                 // on to port D (at address 8) 
.................... #endif 
.................... #endif 
....................  
.................... #if defined use_portb_kbd 
....................    #define set_tris_kbd(x) set_tris_b(x) 
.................... #else 
....................    #define set_tris_kbd(x) set_tris_d(x) 
.................... #endif 
....................  
....................  
....................  
.................... //Keypad connection:   (for example column 0 is B2) 
.................... //                Bx: 
....................  
.................... #ifdef blue_keypad  ///////////////////////////////////// For the blue keypad 
.................... #define COL0 (1 << 2) 
.................... #define COL1 (1 << 3) 
.................... #define COL2 (1 << 6) 
....................  
.................... #define ROW0 (1 << 4) 
.................... #define ROW1 (1 << 7) 
.................... #define ROW2 (1 << 1) 
.................... #define ROW3 (1 << 5) 
....................  
.................... #else ////////////////////////////////////////////////// For the black keypad 
.................... #define COL0 (1 << 5) 
.................... #define COL1 (1 << 6) 
.................... #define COL2 (1 << 7) 
....................  
.................... #define ROW0 (1 << 1) 
.................... #define ROW1 (1 << 2) 
.................... #define ROW2 (1 << 3) 
.................... #define ROW3 (1 << 4) 
....................  
.................... #endif 
....................  
.................... #define ALL_ROWS (ROW0|ROW1|ROW2|ROW3) 
.................... #define ALL_PINS (ALL_ROWS|COL0|COL1|COL2) 
....................  
.................... // Keypad layout: 
.................... char const KEYS[4][3] = {{'1','2','3'}, 
....................                          {'4','5','6'}, 
....................                          {'7','8','9'}, 
....................                          {'*','0','#'}}; 
....................  
.................... #define KBD_DEBOUNCE_FACTOR 33    // Set this number to apx n/333 where 
....................                                   // n is the number of times you expect 
....................                                   // to call kbd_getc each second 
....................  
....................  
.................... void kbd_init() { 
.................... } 
*
003F:  BCF    0A.3
0040:  BCF    0A.4
0041:  GOTO   278 (RETURN)
....................  
.................... char kbd_getc( ) { 
....................    static BYTE kbd_call_count; 
*
0268:  BCF    03.5
0269:  CLRF   20
....................    static short int kbd_down; 
026A:  BCF    21.0
....................    static char last_key; 
026B:  CLRF   22
....................    static BYTE col; 
026C:  CLRF   23
....................  
....................    BYTE kchar; 
....................    BYTE row; 
....................  
....................    kchar='\0'; 
*
00EC:  CLRF   35
....................    if(++kbd_call_count>KBD_DEBOUNCE_FACTOR) { 
00ED:  INCF   20,F
00EE:  MOVF   20,W
00EF:  SUBLW  21
00F0:  BTFSC  03.0
00F1:  GOTO   14B
....................        switch (col) { 
00F2:  MOVF   23,W
00F3:  BTFSC  03.2
00F4:  GOTO   0FC
00F5:  XORLW  01
00F6:  BTFSC  03.2
00F7:  GOTO   102
00F8:  XORLW  03
00F9:  BTFSC  03.2
00FA:  GOTO   108
00FB:  GOTO   10E
....................          case 0   : set_tris_kbd(ALL_PINS&~COL0); 
00FC:  MOVLW  DE
00FD:  BSF    03.5
00FE:  MOVWF  06
....................                     kbd=~COL0&ALL_PINS; 
00FF:  BCF    03.5
0100:  MOVWF  06
....................                     break; 
0101:  GOTO   10E
....................          case 1   : set_tris_kbd(ALL_PINS&~COL1); 
0102:  MOVLW  BE
0103:  BSF    03.5
0104:  MOVWF  06
....................                     kbd=~COL1&ALL_PINS; 
0105:  BCF    03.5
0106:  MOVWF  06
....................                     break; 
0107:  GOTO   10E
....................          case 2   : set_tris_kbd(ALL_PINS&~COL2); 
0108:  MOVLW  7E
0109:  BSF    03.5
010A:  MOVWF  06
....................                     kbd=~COL2&ALL_PINS; 
010B:  BCF    03.5
010C:  MOVWF  06
....................                     break; 
010D:  GOTO   10E
....................        } 
....................  
....................        if(kbd_down) { 
010E:  BTFSS  21.0
010F:  GOTO   11A
....................          if((kbd & (ALL_ROWS))==(ALL_ROWS)) { 
0110:  MOVF   06,W
0111:  ANDLW  1E
0112:  SUBLW  1E
0113:  BTFSS  03.2
0114:  GOTO   119
....................            kbd_down=FALSE; 
0115:  BCF    21.0
....................            kchar=last_key; 
0116:  MOVF   22,W
0117:  MOVWF  35
....................            last_key='\0'; 
0118:  CLRF   22
....................          } 
....................        } else { 
0119:  GOTO   14A
....................           if((kbd & (ALL_ROWS))!=(ALL_ROWS)) { 
011A:  MOVF   06,W
011B:  ANDLW  1E
011C:  SUBLW  1E
011D:  BTFSC  03.2
011E:  GOTO   145
....................              if((kbd & ROW0)==0) 
011F:  MOVF   06,W
0120:  ANDLW  02
0121:  BTFSS  03.2
0122:  GOTO   125
....................                row=0; 
0123:  CLRF   36
....................              else if((kbd & ROW1)==0) 
0124:  GOTO   139
0125:  MOVF   06,W
0126:  ANDLW  04
0127:  BTFSS  03.2
0128:  GOTO   12C
....................                row=1; 
0129:  MOVLW  01
012A:  MOVWF  36
....................              else if((kbd & ROW2)==0) 
012B:  GOTO   139
012C:  MOVF   06,W
012D:  ANDLW  08
012E:  BTFSS  03.2
012F:  GOTO   133
....................                row=2; 
0130:  MOVLW  02
0131:  MOVWF  36
....................              else if((kbd & ROW3)==0) 
0132:  GOTO   139
0133:  MOVF   06,W
0134:  ANDLW  10
0135:  BTFSS  03.2
0136:  GOTO   139
....................                row=3; 
0137:  MOVLW  03
0138:  MOVWF  36
....................              last_key =KEYS[row][col]; 
0139:  MOVF   36,W
013A:  MOVWF  39
013B:  MOVLW  03
013C:  MOVWF  3A
013D:  CALL   0C7
013E:  MOVF   23,W
013F:  ADDWF  78,W
0140:  CALL   00C
0141:  MOVWF  78
0142:  MOVWF  22
....................              kbd_down = TRUE; 
0143:  BSF    21.0
....................           } else { 
0144:  GOTO   14A
....................              ++col; 
0145:  INCF   23,F
....................              if(col==3) 
0146:  MOVF   23,W
0147:  SUBLW  03
0148:  BTFSC  03.2
....................                col=0; 
0149:  CLRF   23
....................           } 
....................        } 
....................       kbd_call_count=0; 
014A:  CLRF   20
....................    } 
....................   set_tris_kbd(ALL_PINS); 
014B:  MOVLW  FE
014C:  BSF    03.5
014D:  MOVWF  06
....................   return(kchar); 
014E:  BCF    03.5
014F:  MOVF   35,W
0150:  MOVWF  78
.................... } 
0151:  RETLW  00
....................  
.................... #include <stdlib.h> 
.................... /////////////////////////////////////////////////////////////////////////// 
.................... ////        (C) Copyright 1996,2007 Custom Computer Services           //// 
.................... //// This source code may only be used by licensed users of the CCS C  //// 
.................... //// compiler.  This source code may only be distributed to other      //// 
.................... //// licensed users of the CCS C compiler.  No other use, reproduction //// 
.................... //// or distribution is permitted without written permission.          //// 
.................... //// Derivative programs created using this software in object code    //// 
.................... //// form are not restricted in any way.                               //// 
.................... /////////////////////////////////////////////////////////////////////////// 
....................  
.................... #ifndef _STDLIB 
.................... #define _STDLIB 
....................  
.................... //--------------------------------------------------------------------------- 
.................... // Definitions and types 
.................... //--------------------------------------------------------------------------- 
....................  
.................... #ifndef RAND_MAX 
.................... #define RAND_MAX  32767    // The value of which is the maximum value 
....................                            // ... returned by the rand function 
.................... #endif 
....................  
.................... #IF (sizeof(int16*)>1) 
.................... #DEFINE LONG_POINTERS 1 
.................... #ELSE  
.................... #DEFINE LONG_POINTERS 0 
.................... #ENDIF 
....................  
....................  
.................... typedef struct { 
....................    signed int quot; 
....................    signed int rem; 
.................... } div_t; 
....................  
.................... typedef struct { 
....................    signed long quot; 
....................    signed long rem; 
.................... } ldiv_t; 
....................  
.................... #include <stddef.h> 
.................... /////////////////////////////////////////////////////////////////////////// 
.................... ////        (C) Copyright 1996,2003 Custom Computer Services           //// 
.................... //// This source code may only be used by licensed users of the CCS C  //// 
.................... //// compiler.  This source code may only be distributed to other      //// 
.................... //// licensed users of the CCS C compiler.  No other use, reproduction //// 
.................... //// or distribution is permitted without written permission.          //// 
.................... //// Derivative programs created using this software in object code    //// 
.................... //// form are not restricted in any way.                               //// 
.................... /////////////////////////////////////////////////////////////////////////// 
....................  
.................... #ifndef _STDDEF 
....................  
.................... #define _STDDEF 
....................  
.................... #if sizeof(unsigned int8 *)==1 
.................... #define ptrdiff_t unsigned int8 
.................... #else 
.................... #define ptrdiff_t unsigned int16 
.................... #endif 
....................  
.................... #define size_t unsigned int8 
.................... #define wchar_t char 
.................... #define NULL 0 
....................  
.................... #define offsetof(s,f) (offsetofbit(s,f)/8) 
....................  
.................... #endif 
....................  
....................  
.................... //--------------------------------------------------------------------------- 
.................... // String conversion functions 
.................... //--------------------------------------------------------------------------- 
....................  
.................... /* Standard template: float32 atof(char * s) 
....................  * converts the initial portion of the string s to a float. 
....................  * returns the converted value if any, 0 otherwise 
....................  */ 
.................... float32 atof(char * s); 
....................  
....................  
.................... #if defined(__PCD__) 
.................... // The following functions only work on the 24 bit compiler 
.................... // for the 30F, 33F, 24F and 24H parts 
....................  
.................... /* Standard template: float48 atof48(char * s) 
....................  * converts the initial portion of the string s to a float. 
....................  * returns the converted value if any, 0 otherwise 
....................  */ 
.................... float48 atof48(char * s); 
....................  
.................... /* Standard template: float64 atof64(char * s) 
....................  * converts the initial portion of the string s to a float. 
....................  * returns the converted value if any, 0 otherwise 
....................  */ 
.................... float64 atof64(char * s); 
.................... #endif 
.................... /* Standard template: float32 atoe(char * s) 
....................  * converts the initial portion of the string s to a float. 
....................  * returns the converted value if any, 0 otherwise 
....................  * also handles E format numbers 
....................  */ 
.................... float32 atoe(char * s); 
....................  
.................... /* Standard template: signed int  atoi(char * s) 
....................  * converts the initial portion of the string s to a signed int 
....................  * returns the converted value if any, 0 otherwise 
....................  */ 
.................... signed int atoi(char *s); 
....................  
.................... /* Syntax: signed int32  atoi32(char * s) 
....................    converts the initial portion of the string s to a signed int32 
....................    returns the converted value if any, 0 otherwise*/ 
.................... #if (sizeof(long)==4) 
....................  #define atoi32(s) atol(s) 
.................... #else  
....................  signed int32 atoi32(char *s); 
.................... #endif 
....................  
.................... #if defined(__PCD__) 
.................... // The following functions only work on the 24 bit compiler 
.................... // for the 30F, 33F, 24F and 24H parts 
.................... /* Syntax: signed int48  atoi48(char * s) 
....................    converts the initial portion of the string s to a signed int48 
....................    returns the converted value if any, 0 otherwise*/ 
....................     
.................... signed int48 atoi48(char *s); 
....................  
.................... /* Syntax: signed int64  atoi64(char * s) 
....................    converts the initial portion of the string s to a signed int64 
....................    returns the converted value if any, 0 otherwise*/ 
.................... signed int64 atoi64(char *s); 
.................... #endif 
....................  
.................... /* Syntax: char *  itoa(signed int32 num, int8 base, char * s) 
....................    converts the signed int32 to a string and 
....................    returns the converted value if any, 0 otherwise*/ 
.................... char * itoa(signed int32 num, unsigned int base, char * s); 
....................  
.................... /* Standard template: signed int16  atol(char * s) 
....................  * converts the initial portion of the string s to a signed int16 
....................  * returns the converted value if any, 0 otherwise 
....................  */ 
.................... signed long atol(char *s); 
....................  
.................... /* Standard template: float32 strtod(char * s,char *endptr) 
....................  * converts the initial portion of the string s to a float32 
....................  * returns the converted value if any, 0 otherwise 
....................  * the final string is returned in the endptr, if endptr is not null 
....................  */ 
.................... #if !defined(__PCD__) 
.................... float32 strtod(char *s,char *endptr); 
.................... #endif 
....................  
.................... /* Standart template: float32 strto(char * s,char *endptr) 
....................                       float48 strtof48(char *s,char *endptr); 
....................                       float64 strtod(char *s,char *endptr); 
....................  * converts the initial portion of the string s to a float32, float48 or float64, 
....................  * returns the converted value if any, 0 otherwise 
....................  * the final string is returned in the endptr, if endptr is not null                    
.................... */ 
.................... #if defined(__PCD__) 
.................... float32 strtof(char *s,char *endptr); 
.................... float48 strtof48(char *s,char *endptr); 
.................... float64 strtod(char *s,char *endptr); 
.................... #endif 
....................  
.................... /* Standard template: int16 strtoul(char * s,char *endptr,signed int base) 
....................  * converts the initial portion of the string s, represented as an 
....................  * integral value of radix base  to a signed long. 
....................  * Returns the converted value if any, 0 otherwise 
....................  * the final string is returned in the endptr, if endptr is not null 
....................  */ 
.................... signed long strtol(char *s,char *endptr, signed int base); 
....................  
.................... /* Standard template: int16 strtoul(char * s,char *endptr,signed int base) 
....................  * converts the initial portion of the string s, represented as an 
....................  * integral value of radix base to a unsigned long. 
....................  * returns the converted value if any, 0 otherwise 
....................  * the final string is returned in the endptr, if endptr is not null 
....................  */ 
.................... unsigned long strtoul(char *s,char *endptr, signed int base); 
....................  
.................... //--------------------------------------------------------------------------- 
.................... // Pseudo-random sequence generation functions 
.................... //--------------------------------------------------------------------------- 
....................  
.................... /* The rand function computes a sequence of pseudo-random integers in 
....................  * the range 0 to RAND_MAX 
....................  * 
....................  * Parameters: 
....................  *       (none) 
....................  * 
....................  * Returns: 
....................  *       The pseudo-random integer 
....................  */ 
.................... int16 rand(void); 
....................  
.................... /* The srand function uses the argument as a seed for a new sequence of 
....................  * pseudo-random numbers to be returned by subsequent calls to rand. 
....................  * 
....................  * Parameters: 
....................  *       [in] seed: The seed value to start from. You might need to pass 
....................  * 
....................  * Returns: 
....................  *       (none) 
....................  * 
....................  * Remarks 
....................  *          The srand function sets the starting point for generating 
....................  *       a series of pseudorandom integers. To reinitialize the 
....................  *       generator, use 1 as the seed argument. Any other value for 
....................  *       seed sets the generator to a random starting point. rand 
....................  *       retrieves the pseudorandom numbers that are generated. 
....................  *       Calling rand before any call to srand generates the same 
....................  *       sequence as calling srand with seed passed as 1. 
....................  *          Usually, you need to pass a time here from outer source 
....................  *       so that the numbers will be different every time you run. 
....................  */ 
.................... void srand(unsigned int32 seed); 
....................  
.................... //--------------------------------------------------------------------------- 
.................... // Memory management functions 
.................... //--------------------------------------------------------------------------- 
....................  
.................... // Comming soon 
....................  
.................... //--------------------------------------------------------------------------- 
.................... // Communication with the environment 
.................... //--------------------------------------------------------------------------- 
....................  
.................... /* The function returns 0 always 
....................  */ 
.................... signed int8 system(char *string); 
....................  
.................... //--------------------------------------------------------------------------- 
.................... // Searching and sorting utilities 
.................... //--------------------------------------------------------------------------- 
....................  
.................... /* Performs a binary search of a sorted array.. 
....................  * 
....................  * Parameters: 
....................  *       [in] key: Object to search for 
....................  *       [in] base: Pointer to base of search data 
....................  *       [in] num: Number of elements 
....................  *       [in] width: Width of elements 
....................  *       [in] compare: Function that compares two elements 
....................  * 
....................  * Returns: 
....................  *       bsearch returns a pointer to an occurrence of key in the array pointed 
....................  *       to by base. If key is not found, the function returns NULL. If the 
....................  *       array is not in order or contains duplicate records with identical keys, 
....................  *       the result is unpredictable. 
....................  */ 
.................... //void *bsearch(const void *key, const void *base, size_t num, size_t width, 
.................... //              int (*compare)(const void *, const void *)); 
....................  
.................... /* Performs the shell-metzner sort (not the quick sort algorithm). The contents 
....................  * of the array are sorted into ascending order according to a comparison 
....................  * function pointed to by compar. 
....................  * 
....................  * Parameters: 
....................  *       [in] base: Pointer to base of search data 
....................  *       [in] num: Number of elements 
....................  *       [in] width: Width of elements 
....................  *       [in] compare: Function that compares two elements 
....................  * 
....................  * Returns: 
....................  *       (none) 
....................  */ 
.................... //void *qsort(const void *base, size_t num, size_t width, 
.................... //              int (*compare)(const void *, const void *)); 
....................  
.................... //--------------------------------------------------------------------------- 
.................... // Integer arithmetic functions 
.................... //--------------------------------------------------------------------------- 
....................  
.................... #define labs abs 
....................  
.................... div_t div(signed int numer, signed int denom); 
.................... ldiv_t ldiv(signed long numer, signed long denom); 
....................  
.................... //--------------------------------------------------------------------------- 
.................... // Multibyte character functions 
.................... //--------------------------------------------------------------------------- 
....................  
.................... // Not supported 
....................  
.................... //--------------------------------------------------------------------------- 
.................... // Multibyte string functions 
.................... //--------------------------------------------------------------------------- 
....................  
.................... // Not supported 
....................  
....................  
.................... //--------------------------------------------------------------------------- 
.................... // Internal implementation 
.................... //--------------------------------------------------------------------------- 
....................  
.................... #include <stddef.h> 
.................... /////////////////////////////////////////////////////////////////////////// 
.................... ////        (C) Copyright 1996,2003 Custom Computer Services           //// 
.................... //// This source code may only be used by licensed users of the CCS C  //// 
.................... //// compiler.  This source code may only be distributed to other      //// 
.................... //// licensed users of the CCS C compiler.  No other use, reproduction //// 
.................... //// or distribution is permitted without written permission.          //// 
.................... //// Derivative programs created using this software in object code    //// 
.................... //// form are not restricted in any way.                               //// 
.................... /////////////////////////////////////////////////////////////////////////// 
....................  
.................... #ifndef _STDDEF 
....................  
.................... #define _STDDEF 
....................  
.................... #if sizeof(unsigned int8 *)==1 
.................... #define ptrdiff_t unsigned int8 
.................... #else 
.................... #define ptrdiff_t unsigned int16 
.................... #endif 
....................  
.................... #define size_t unsigned int8 
.................... #define wchar_t char 
.................... #define NULL 0 
....................  
.................... #define offsetof(s,f) (offsetofbit(s,f)/8) 
....................  
.................... #endif 
....................  
.................... #include <string.h> 
.................... //////////////////////////////////////////////////////////////////////////// 
.................... ////        (C) Copyright 1996,2003 Custom Computer Services            //// 
.................... //// This source code may only be used by licensed users of the CCS C   //// 
.................... //// compiler.  This source code may only be distributed to other       //// 
.................... //// licensed users of the CCS C compiler.  No other use, reproduction  //// 
.................... //// or distribution is permitted without written permission.           //// 
.................... //// Derivative programs created using this software in object code     //// 
.................... //// form are not restricted in any way.                                //// 
.................... //////////////////////////////////////////////////////////////////////////// 
....................  
.................... #ifndef _STRING 
.................... #define _STRING 
.................... #include <stddef.h> 
.................... /////////////////////////////////////////////////////////////////////////// 
.................... ////        (C) Copyright 1996,2003 Custom Computer Services           //// 
.................... //// This source code may only be used by licensed users of the CCS C  //// 
.................... //// compiler.  This source code may only be distributed to other      //// 
.................... //// licensed users of the CCS C compiler.  No other use, reproduction //// 
.................... //// or distribution is permitted without written permission.          //// 
.................... //// Derivative programs created using this software in object code    //// 
.................... //// form are not restricted in any way.                               //// 
.................... /////////////////////////////////////////////////////////////////////////// 
....................  
.................... #ifndef _STDDEF 
....................  
.................... #define _STDDEF 
....................  
.................... #if sizeof(unsigned int8 *)==1 
.................... #define ptrdiff_t unsigned int8 
.................... #else 
.................... #define ptrdiff_t unsigned int16 
.................... #endif 
....................  
.................... #define size_t unsigned int8 
.................... #define wchar_t char 
.................... #define NULL 0 
....................  
.................... #define offsetof(s,f) (offsetofbit(s,f)/8) 
....................  
.................... #endif 
....................  
.................... #include <ctype.h> 
.................... //////////////////////////////////////////////////////////////////////////// 
.................... ////        (C) Copyright 1996,2003 Custom Computer Services            //// 
.................... //// This source code may only be used by licensed users of the CCS C   //// 
.................... //// compiler.  This source code may only be distributed to other       //// 
.................... //// licensed users of the CCS C compiler.  No other use, reproduction  //// 
.................... //// or distribution is permitted without written permission.           //// 
.................... //// Derivative programs created using this software in object code     //// 
.................... //// form are not restricted in any way.                                //// 
.................... //////////////////////////////////////////////////////////////////////////// 
....................  
.................... #ifndef _CTYPE 
.................... #define _CTYPE 
....................  
.................... #define islower(x)  isamong(x,"abcdefghijklmnopqrstuvwxyz") 
.................... #define isupper(x)  isamong(x,"ABCDEFGHIJKLMNOPQRSTUVWXYZ") 
.................... #define isalnum(x)  isamong(x,"0123456789ABCDEFGHIJKLMNOPQRSTUVWXYZabcdefghijklmnopqrstuvwxyz") 
.................... #define isalpha(x)  isamong(x,"ABCDEFGHIJKLMNOPQRSTUVWXYZabcdefghijklmnopqrstuvwxyz") 
.................... #define isdigit(x)  isamong(x,"0123456789") 
.................... #define isspace(x)  ((x)==' ') 
.................... #define isxdigit(x) isamong(x,"0123456789ABCDEFabcdef") 
.................... #define iscntrl(x)  ((x)<' ') 
.................... #define isprint(x)  ((x)>=' ') 
.................... #define isgraph(x)  ((x)>' ') 
.................... #define ispunct(x)  (((x)>' ')&&!isalnum(x)) 
....................  
.................... #endif 
....................  
....................  
....................  
....................  
....................  
.................... ////////////////////////////////////////////// 
.................... //// Uncomment the following define to    //// 
.................... //// allow some functions to use a        //// 
.................... //// quicker algorithm, but use more ROM  //// 
.................... ////                                      //// 
.................... //// #define FASTER_BUT_MORE_ROM          //// 
.................... ////////////////////////////////////////////// 
....................  
....................  
....................  
.................... /*Copying functions*/ 
.................... /* standard template: 
....................    void *memmove(void *s1, void *s2, size_t n). 
....................    Copies max of n characters safely (not following ending '\0') 
....................    from s2 in s1; if s2 has less than n characters, appends 0 */ 
....................  
.................... char *memmove(void *s1,char *s2,size_t n) 
.................... { 
....................    char *sc1; 
....................    char *sc2; 
....................    sc1=s1; 
....................    sc2=s2; 
....................    if(sc2<sc1 && sc1 <sc2 +n) 
....................       for(sc1+=n,sc2+=n;0<n;--n) 
....................          *--sc1=*--sc2; 
....................    else 
....................       for(;0<n;--n) 
....................          *sc1++=*sc2++; 
....................   return s1; 
....................   } 
....................  
.................... /* compiler ignored the name 'strcpy()'; perhaps, it's reserved? 
....................    Standard template: char *strcpy(char *s1, const char *s2) 
....................    copies the string s2 including the null character to s1*/ 
....................  
.................... char *strcopy(char *s1, char *s2) 
.................... { 
....................   char *s; 
....................  
....................   for (s = s1; *s2 != 0; s++, s2++) { 
....................      *s = *s2; 
....................   } 
....................   *s = *s2; 
....................   return(s1); 
.................... } 
....................  
.................... /* standard template: 
....................    char *strncpy(char *s1, const char *s2, size_t n). 
....................    Copies max of n characters (not following ending '\0') 
....................    from s2 in s1; if s2 has less than n characters, appends 0 */ 
....................  
.................... char *strncpy(char *s1, char *s2, size_t n) 
.................... { 
....................   char *s; 
....................  
....................   for (s = s1; n > 0 && *s2 != '\0'; n--) 
....................      *s++ = *s2++; 
....................   for (; n > 0; n--) 
....................      *s++ = '\0'; 
....................  
....................   return(s1); 
.................... } 
.................... /***********************************************************/ 
....................  
.................... /*concatenation functions*/ 
.................... /* standard template: char *strcat(char *s1, const char *s2) 
.................... appends s2 to s1*/ 
....................  
.................... char *strcat(char *s1, char *s2) 
.................... { 
....................    char *s; 
....................  
....................    for (s = s1; *s != '\0'; ++s); 
....................    while(*s2 != '\0') 
....................    { 
....................       *s = *s2; 
....................       ++s; 
....................       ++s2; 
....................    } 
....................  
....................    *s = '\0'; 
....................    return(s1); 
.................... } 
.................... /* standard template: char *strncat(char *s1, char *s2,size_t n) 
.................... appends not more than n characters from s2 to s1*/ 
....................  
.................... char *strncat(char *s1, char *s2, size_t n) 
.................... { 
....................    char *s; 
....................  
....................    for (s = s1; *s != '\0'; ++s); 
....................    while(*s2 != '\0' && 0<n) 
....................    { 
....................       *s = *s2; 
....................       ++s; 
....................       ++s2; 
....................       --n; 
....................    } 
....................  
....................    *s = '\0'; 
....................    return(s1); 
.................... } 
....................  
.................... /***********************************************************/ 
....................  
....................  
.................... /*comparison functions*/ 
.................... /* standard template: signed int memcmp(void *s1, void *s2). 
....................    Compares s1 & s2; returns -1 if s1<s2, 0 if s1=s2, 1 if s1>s2 */ 
....................  
.................... signed int8 memcmp(void * s1,char *s2,size_t n) 
.................... { 
.................... char *su1, *su2; 
.................... for(su1=s1, su2=s2; 0<n; ++su1, ++su2, --n) 
.................... { 
....................    if(*su1!=*su2) 
....................       return ((*su1<*su2)?-1:+1); 
.................... } 
.................... return 0; 
.................... } 
....................  
.................... /* standard template: int strcmp(const char *s1, const char *s2). 
....................    Compares s1 & s2; returns -1 if s1<s2, 0 if s1=s2, 1 if s1>s2 */ 
....................  
.................... signed int8 strcmp(char *s1, char *s2) 
.................... { 
....................    for (; *s1 == *s2; s1++, s2++) 
....................       if (*s1 == '\0') 
....................          return(0); 
....................    return((*s1 < *s2) ? -1: 1); 
.................... } 
.................... /* standard template: int strcoll(const char *s1, const char *s2). 
....................    Compares s1 & s2; returns -1 if s1<s2, 0 if s1=s2, 1 if s1>s2 */ 
....................  
.................... signed int8 strcoll(char *s1, char *s2) 
.................... { 
....................    for (; *s1 == *s2; s1++, s2++) 
....................       if (*s1 == '\0') 
....................          return(0); 
....................    return((*s1 < *s2) ? -1: 1); 
.................... } 
....................  
.................... /* standard template: 
....................    int strncmp(const char *s1, const char *s2, size_t n). 
....................    Compares max of n characters (not following 0) from s1 to s2; 
....................    returns same as strcmp */ 
....................  
.................... signed int8 strncmp(char *s1, char *s2, size_t n) 
.................... { 
....................    for (; n > 0; s1++, s2++, n--) 
....................       if (*s1 != *s2) 
....................          return((*s1 <*s2) ? -1: 1); 
....................       else if (*s1 == '\0') 
....................          return(0); 
....................    return(0); 
.................... } 
.................... /* standard template: 
....................    int strxfrm(const char *s1, const char *s2, size_t n). 
....................    transforms maximum of n characters from s2 and places them into s1*/ 
.................... size_t strxfrm(char *s1, char *s2, size_t n) 
.................... { 
....................   char *s; 
....................   unsigned int8 n1; 
....................   n1=n; 
....................   for (s = s1; n > 0 && *s2 != '\0'; n--) 
....................      *s++ = *s2++; 
....................   for (; n > 0; n--) 
....................      *s++ = '\0'; 
....................  
....................   return(n1); 
.................... } 
....................  
....................  
....................  
....................  
....................  
.................... /***********************************************************/ 
.................... /*Search functions*/ 
.................... /* standard template: void *memchr(const char *s, int c). 
....................    Finds first occurrence of c in n characters of s */ 
....................  
.................... char *memchr(void *s,unsigned int8 c,size_t n) 
.................... { 
....................    char uc; 
....................    char *su; 
....................    uc=c; 
....................    for(su=s;0<n;++su,--n) 
....................       if(*su==uc) 
....................       return su; 
....................    return NULL; 
.................... } 
....................  
.................... /* standard template: char *strchr(const char *s, int c). 
....................    Finds first occurrence of c in s */ 
....................  
.................... char *strchr(char *s, unsigned int8 c) 
.................... { 
....................    for (; *s != c; s++) 
....................       if (*s == '\0') 
....................          return(0); 
....................    return(s); 
.................... } 
.................... /* standard template: 
....................    size_t strcspn(const char *s1, const char *s2). 
....................    Computes length of max initial segment of s1 that 
....................    consists entirely of characters NOT from s2*/ 
....................  
.................... unsigned int8 *strcspn(char *s1, char *s2) 
.................... { 
....................    char *sc1, *sc2; 
....................  
....................    for (sc1 = s1; *sc1 != 0; sc1++) 
....................       for (sc2 = s2; *sc2 != 0; sc2++) 
....................          if (*sc1 == *sc2) 
....................             return(sc1 - s1); 
....................    return(sc1 - s1); 
.................... } 
.................... /* standard template: 
....................    char *strpbrk(const char *s1, const char *s2). 
....................    Locates first occurence of any character from s2 in s1; 
....................    returns s1 if s2 is empty string */ 
....................  
.................... char *strpbrk(char *s1, char *s2) 
.................... { 
....................    char *sc1, *sc2; 
....................  
....................    for (sc1 = s1; *sc1 != 0; sc1++) 
....................       for (sc2 = s2; *sc2 != 0; sc2++) 
....................          if (*sc1 == *sc2) 
....................             return(sc1); 
....................    return(0); 
.................... } 
....................  
....................  
.................... /* standard template: char *strrchr(const char *s, int c). 
....................    Finds last occurrence of c in s */ 
....................  
.................... char *strrchr(char *s, unsigned int8 c) 
.................... { 
....................    char *p; 
....................  
....................    for (p = 0; ; s++) 
....................    { 
....................       if (*s == c) 
....................          p = s; 
....................       if (*s == '\0') 
....................          return(p); 
....................    } 
.................... } 
.................... /* computes length of max initial segment of s1 consisting 
....................    entirely of characters from s2 */ 
....................  
.................... unsigned int8 *strspn(char *s1, char *s2) 
.................... { 
....................    char *sc1, *sc2; 
....................  
....................    for (sc1 = s1; *sc1 != 0; sc1++) 
....................       for (sc2 = s2; ; sc2++) 
....................     if (*sc2 == '\0') 
....................        return(sc1 - s1); 
....................          else if (*sc1 == *sc2) 
....................             break; 
....................    return(sc1 - s1); 
.................... } 
.................... /* standard template: 
....................    char *strstr(const char *s1, const char *s2); 
....................    Locates first occurence of character sequence s2 in s1; 
....................    returns 0 if s2 is empty string 
....................  
....................    Uncomment #define FASTER_BUT_MORE_ROM at the top of the 
....................    file to use the faster algorithm */ 
.................... char *strstr(char *s1, char *s2) 
.................... { 
....................    char *s, *t; 
....................  
....................    #ifdef FASTER_BUT_MORE_ROM 
....................    if (*s2 == '\0') 
....................          return(s1); 
....................    #endif 
....................  
....................    while (*s1) 
....................    { 
....................       for(s = s1, t = s2; *t && (*s == *t); ++s, ++t); 
....................  
....................       if (*t == '\0') 
....................          return s1; 
....................       ++s1; 
....................       #ifdef FASTER_BUT_MORE_ROM 
....................          while(*s1 != '\0' && *s1 != *s2) 
....................             ++s1; 
....................       #endif 
....................    } 
....................    return 0; 
.................... } 
....................  
.................... /* standard template: char *strtok(char *s1, const char *s2). 
....................  
....................    Finds next token in s1 delimited by a character from separator 
....................    string s2 (which can be different from call to call).  First call 
....................    starts at beginning of s1 searching for first character NOT 
....................    contained in s2; returns 0 if none is found. 
....................    If one is found, it is the start of first token (return value). 
....................    Function then searches from there for a character contained in s2. 
....................    If none is found, current token extends to end of s1, and subsequent 
....................    searches for a token will return 0.  If one is found, it is 
....................    overwritten by '\0', which terminates current token.  Function saves 
....................    pointer to following character from which next search will start. 
....................    Each subsequent call, with 0 as first argument, starts searching 
....................    from saved pointer */ 
....................  
.................... char *strtok(char *s1, char *s2) 
.................... { 
....................    char *beg, *end; 
....................    static char *save; 
*
026D:  CLRF   24
026E:  CLRF   25
....................  
....................    beg = (s1)? s1: save; 
....................    beg += strspn(beg, s2); 
....................    if (*beg == '\0') 
....................    { 
....................       *save = ' '; 
....................       return(0); 
....................    } 
....................    end = strpbrk(beg, s2); 
....................    if (*end != '\0') 
....................    { 
....................       *end = '\0'; 
....................       end++; 
....................    } 
....................    save = end; 
....................    return(beg); 
.................... } 
....................  
.................... /*****************************************************************/ 
.................... /*Miscellaneous functions*/ 
.................... /* standard template 
.................... maps error number in errnum to an error message string 
.................... Returns: Pointer to string 
.................... */ 
.................... #ifdef _ERRNO 
.................... char * strerror(unsigned int8 errnum) 
.................... { 
.................... char s[15]; 
.................... switch( errnum) 
.................... { 
.................... case 0: 
....................    strcpy(s,"no errors"); 
....................    return s; 
.................... case EDOM : 
....................    strcpy(s,"domain error"); 
....................    return s; 
.................... case ERANGE: 
....................    strcpy(s,"range error"); 
....................    return s; 
.................... } 
.................... } 
.................... #ENDIF 
.................... /* standard template: size_t strlen(const char *s). 
....................    Computes length of s1 (preceding terminating 0) */ 
....................  
.................... unsigned int8 *strlen(char *s) 
.................... { 
....................    char *sc; 
....................  
....................    for (sc = s; *sc != 0; sc++); 
....................    return(sc - s); 
.................... } 
....................  
.................... /* standard template: size_t stricmp(const char *s1, const char *s2). 
....................    Compares s1 to s2 ignoring case (upper vs. lower) */ 
....................  
.................... signed int8 stricmp(char *s1, char *s2) 
.................... { 
....................  for(; *s1==*s2||(isalpha(*s1)&&isalpha(*s2)&&(*s1==*s2+32||*s2==*s1+32)); 
....................     s1++, s2++) 
....................     if (*s1 == '\0') 
....................        return(0); 
....................  return((*s1 < *s2) ? -1: 1); 
.................... } 
....................  
....................  
.................... /* standard template: char *strlwr(char *s). 
....................    Replaces uppercase letters by lowercase; 
....................    returns pointer to new string s */ 
....................  
.................... char *strlwr(char *s) 
.................... { 
....................    char *p; 
....................  
....................    for (p = s; *p != '\0'; p++) 
....................       if (*p >= 'A' && *p <='Z') 
....................          *p += 'a' - 'A'; 
....................    return(s); 
.................... } 
....................  
....................  
.................... /************************************************************/ 
....................  
....................  
.................... #endif 
....................  
....................  
.................... div_t div(signed int numer, signed int denom) 
.................... { 
....................    div_t val; 
....................    val.quot = numer / denom; 
....................    val.rem = numer - (denom * val.quot); 
....................    return (val); 
.................... } 
....................  
.................... ldiv_t ldiv(signed long numer, signed long denom) 
.................... { 
....................    ldiv_t val; 
....................    val.quot = numer / denom; 
....................    val.rem = numer - (denom * val.quot); 
....................    return (val); 
.................... } 
....................  
.................... float32 atof(char * s) 
.................... { 
....................    float32 pow10 = 1.0; 
....................    float32 result = 0.0; 
....................    unsigned int8 sign = 0; 
....................    char c; 
....................    unsigned int8 ptr = 0; 
....................  
....................    c = s[ptr++]; 
....................  
....................    if ((c>='0' && c<='9') || c=='+' || c=='-' || c=='.') { 
....................       if(c == '-') { 
....................          sign = 1; 
....................          c = s[ptr++]; 
....................       } 
....................       if(c == '+') 
....................          c = s[ptr++]; 
....................  
....................       while((c >= '0' && c <= '9')) { 
....................          result = 10*result + c - '0'; 
....................          c = s[ptr++]; 
....................       } 
....................  
....................       if (c == '.') { 
....................          c = s[ptr++]; 
....................          while((c >= '0' && c <= '9')) { 
....................              pow10 = pow10*10; 
....................              result += (c - '0')/pow10; 
....................              c = s[ptr++]; 
....................          } 
....................       } 
....................  
....................    } 
....................  
....................    if (sign == 1) 
....................       result = -1*result; 
....................    return(result); 
.................... } 
....................  
.................... #if defined(__PCD__) 
....................  
.................... float48 atof48(char * s) 
.................... { 
....................    float48 pow10 = 1.0; 
....................    float48 result = 0.0; 
....................    unsigned int8 sign = 0; 
....................    char c; 
....................    unsigned int8 ptr = 0; 
....................  
....................    c = s[ptr++]; 
....................  
....................    if ((c>='0' && c<='9') || c=='+' || c=='-' || c=='.') { 
....................       if(c == '-') { 
....................          sign = 1; 
....................          c = s[ptr++]; 
....................       } 
....................       if(c == '+') 
....................          c = s[ptr++]; 
....................  
....................       while((c >= '0' && c <= '9')) { 
....................  #cdebug5      
....................          result = 10*result + c - '0'; 
....................          c = s[ptr++]; 
....................       } 
....................  
....................       if (c == '.') { 
....................          c = s[ptr++]; 
....................          while((c >= '0' && c <= '9')) { 
....................              pow10 = pow10*10;  
....................              result += (c - '0')/pow10; 
....................              c = s[ptr++]; 
....................          } 
....................       } 
....................  
....................    } 
....................  
....................    if (sign == 1) 
....................       result = -1*result; 
....................    return(result); 
.................... } 
....................  
.................... float64 atof64(char * s) 
.................... { 
....................    float64 pow10 = 1.0; 
....................    float64 result = 0.0; 
....................    unsigned int8 sign = 0; 
....................    char c; 
....................    unsigned int8 ptr = 0; 
....................  
....................    c = s[ptr++]; 
....................  
....................    if ((c>='0' && c<='9') || c=='+' || c=='-' || c=='.') { 
....................       if(c == '-') { 
....................          sign = 1; 
....................          c = s[ptr++]; 
....................       } 
....................       if(c == '+') 
....................          c = s[ptr++]; 
....................  
....................       while((c >= '0' && c <= '9')) { 
....................          result = 10*result + c - '0'; 
....................          c = s[ptr++]; 
....................       } 
....................  
....................       if (c == '.') { 
....................          c = s[ptr++]; 
....................          while((c >= '0' && c <= '9')) { 
....................              pow10 = pow10*10; 
....................              result += (c - '0')/pow10; 
....................              c = s[ptr++]; 
....................          } 
....................       } 
....................  
....................    } 
....................  
....................    if (sign == 1) 
....................       result = -1*result; 
....................    return(result); 
.................... } 
.................... #endif 
....................  
.................... float32 atoe(char * s) 
.................... { 
....................    float32 pow10 = 1.0; 
....................    float32 result = 0.0; 
....................    unsigned int8 sign = 0; 
....................    unsigned int8 expsign = 0; 
....................    char c; 
....................    unsigned int8 ptr = 0; 
....................    unsigned int8 i; 
....................    float32 exp = 1.0; 
....................    unsigned int8 expcnt = 0; 
....................  
....................    c = s[ptr++]; 
....................  
....................    if ((c>='0' && c<='9') || c=='+' || c=='-' || c=='.' || c=='E' || c=='e') { 
....................       if(c == '-') { 
....................          sign = 1; 
....................          c = s[ptr++]; 
....................       } 
....................       if(c == '+') 
....................          c = s[ptr++]; 
....................  
....................       while((c >= '0' && c <= '9')) { 
....................          result = 10*result + c - '0'; 
....................          c = s[ptr++]; 
....................       } 
....................  
....................       if (c == '.') { 
....................          c = s[ptr++]; 
....................          while((c >= '0' && c <= '9')) { 
....................              pow10 = pow10*10; 
....................              result += (c - '0')/pow10; 
....................              c = s[ptr++]; 
....................          } 
....................       } 
....................  
....................       // Handling the exponent 
....................       if (c=='e' || c=='E') { 
....................          c = s[ptr++]; 
....................  
....................          if(c == '-') { 
....................             expsign = 1; 
....................             c = s[ptr++]; 
....................          } 
....................          if(c == '+') 
....................             c = s[ptr++]; 
....................  
....................          while((c >= '0' && c <= '9')) { 
....................             expcnt = 10*expcnt + c - '0'; 
....................             c = s[ptr++]; 
....................          } 
....................  
....................          for(i=0;i<expcnt;i++) 
....................             exp*=10; 
....................  
....................          if(expsign==1) 
....................             result/=exp; 
....................          else 
....................             result*=exp; 
....................       } 
....................    } 
....................  
....................    if (sign == 1) 
....................       result = -1*result; 
....................    return(result); 
.................... } 
....................  
.................... signed int atoi(char *s) 
.................... { 
....................    signed int result; 
....................    unsigned int sign, base, index; 
....................    char c; 
....................  
....................    index = 0; 
....................    sign = 0; 
....................    base = 10; 
....................    result = 0; 
....................  
....................    if (!s) 
....................       return 0; 
....................    // Omit all preceeding alpha characters 
....................    c = s[index++]; 
....................  
....................    // increase index if either positive or negative sign is detected 
....................    if (c == '-') 
....................    { 
....................       sign = 1;         // Set the sign to negative 
....................       c = s[index++]; 
....................    } 
....................    else if (c == '+') 
....................    { 
....................       c = s[index++]; 
....................    } 
....................  
....................    if (c >= '0' && c <= '9') 
....................    { 
....................  
....................       // Check for hexa number 
....................       if (c == '0' && (s[index] == 'x' || s[index] == 'X')) 
....................       { 
....................          base = 16; 
....................          index++; 
....................          c = s[index++]; 
....................       } 
....................  
....................       // The number is a decimal number 
....................       if (base == 10) 
....................       { 
....................          while (c >= '0' && c <= '9') 
....................          { 
....................             result = 10*result + (c - '0'); 
....................             c = s[index++]; 
....................          } 
....................       } 
....................       else if (base == 16)    // The number is a hexa number 
....................       { 
....................          c = toupper(c); 
....................          while ( (c >= '0' && c <= '9') || (c >= 'A' && c<='F')) 
....................          { 
....................             if (c >= '0' && c <= '9') 
....................                result = (result << 4) + (c - '0'); 
....................             else 
....................                result = (result << 4) + (c - 'A' + 10); 
....................  
....................             c = s[index++]; 
....................             c = toupper(c); 
....................          } 
....................       } 
....................    } 
....................  
....................    if (sign == 1 && base == 10) 
....................        result = -result; 
....................  
....................    return(result); 
.................... } 
....................  
.................... signed long atol(char *s) 
.................... { 
....................    signed long result; 
....................    unsigned int sign, base, index; 
....................    char c; 
....................  
....................    index = 0; 
....................    sign = 0; 
....................    base = 10; 
....................    result = 0; 
....................  
....................    if (!s) 
....................       return 0; 
....................    c = s[index++]; 
....................  
....................    // increase index if either positive or negative sign is detected 
....................    if (c == '-') 
....................    { 
....................       sign = 1;         // Set the sign to negative 
....................       c = s[index++]; 
....................    } 
....................    else if (c == '+') 
....................    { 
....................       c = s[index++]; 
....................    } 
....................  
....................    if (c >= '0' && c <= '9') 
....................    { 
....................       if (c == '0' && (s[index] == 'x' || s[index] == 'X')) 
....................       { 
....................          base = 16; 
....................          index++; 
....................          c = s[index++]; 
....................       } 
....................  
....................       // The number is a decimal number 
....................       if (base == 10) 
....................       { 
....................          while (c >= '0' && c <= '9') 
....................          { 
....................             result = 10*result + (c - '0'); 
....................             c = s[index++]; 
....................          } 
....................       } 
....................       else if (base == 16)    // The number is a hexa number 
....................       { 
....................          c = toupper(c); 
....................          while ( (c >= '0' && c <= '9') || (c >= 'A' && c <='F')) 
....................          { 
....................             if (c >= '0' && c <= '9') 
....................                result = (result << 4) + (c - '0'); 
....................             else 
....................                result = (result << 4) + (c - 'A' + 10); 
....................  
....................             c = s[index++];c = toupper(c); 
....................          } 
....................       } 
....................    } 
....................  
....................    if (base == 10 && sign == 1) 
....................       result = -result; 
....................  
....................    return(result); 
.................... } 
....................  
.................... /* A fast routine to multiply by 10 
....................  */ 
.................... signed int32 mult_with10(int32 num) 
.................... { 
....................    return ( (num << 1) + (num << 3) ); 
.................... } 
....................  
.................... #if sizeof(long)==2 
.................... signed int32 atoi32(char *s) 
.................... { 
....................    signed int32 result; 
....................    int8 sign, base, index; 
....................    char c; 
....................  
....................    index = 0; 
....................    sign = 0; 
....................    base = 10; 
....................    result = 0; 
....................  
....................    if (!s) 
....................       return 0; 
....................    c = s[index++]; 
....................  
....................    // increase index if either positive or negative sign is detected 
....................    if (c == '-') 
....................    { 
....................       sign = 1;         // Set the sign to negative 
....................       c = s[index++]; 
....................    } 
....................    else if (c == '+') 
....................    { 
....................       c = s[index++]; 
....................    } 
....................  
....................    if (c >= '0' && c <= '9') 
....................    { 
....................       if (c == '0' && (s[index] == 'x' || s[index] == 'X')) 
....................       { 
....................          base = 16; 
....................          index++; 
....................          c = s[index++]; 
....................       } 
....................  
....................       // The number is a decimal number 
....................       if (base == 10) 
....................       { 
....................          while (c >= '0' && c <= '9') { 
....................             result = (result << 1) + (result << 3);  // result *= 10; 
....................             result += (c - '0'); 
....................             c = s[index++]; 
....................          } 
....................       } 
....................       else if (base == 16)    // The number is a hexa number 
....................       { 
....................          c = toupper(c); 
....................          while ((c >= '0' && c <= '9') || (c >= 'A' && c <='F')) 
....................          { 
....................             if (c >= '0' && c <= '9') 
....................                result = (result << 4) + (c - '0'); 
....................             else 
....................                result = (result << 4) + (c - 'A' + 10); 
....................  
....................             c = s[index++];c = toupper(c); 
....................          } 
....................       } 
....................    } 
....................  
....................    if (base == 10 && sign == 1) 
....................       result = -result; 
....................  
....................    return(result); 
.................... } 
.................... #endif 
....................  
.................... #if defined(__PCD__) 
....................  
.................... signed int48 atoi48(char *s) 
.................... { 
....................    signed int48 result; 
....................    int8 sign, base, index; 
....................    char c; 
....................  
....................    index = 0; 
....................    sign = 0; 
....................    base = 10; 
....................    result = 0; 
....................  
....................    if (!s) 
....................       return 0; 
....................    c = s[index++]; 
....................  
....................    // increase index if either positive or negative sign is detected 
....................    if (c == '-') 
....................    { 
....................       sign = 1;         // Set the sign to negative 
....................       c = s[index++]; 
....................    } 
....................    else if (c == '+') 
....................    { 
....................       c = s[index++]; 
....................    } 
....................  
....................    if (c >= '0' && c <= '9') 
....................    { 
....................       if (c == '0' && (s[index] == 'x' || s[index] == 'X')) 
....................       { 
....................          base = 16; 
....................          index++; 
....................          c = s[index++]; 
....................       } 
....................  
....................       // The number is a decimal number 
....................       if (base == 10) 
....................       { 
....................          while (c >= '0' && c <= '9') { 
....................             result = (result << 1) + (result << 3);  // result *= 10; 
....................             result += (c - '0'); 
....................             c = s[index++]; 
....................          } 
....................       } 
....................       else if (base == 16)    // The number is a hexa number 
....................       { 
....................          c = toupper(c); 
....................          while ((c >= '0' && c <= '9') || (c >= 'A' && c <='F')) 
....................          { 
....................             if (c >= '0' && c <= '9') 
....................                result = (result << 4) + (c - '0'); 
....................             else 
....................                result = (result << 4) + (c - 'A' + 10); 
....................  
....................             c = s[index++];c = toupper(c); 
....................          } 
....................       } 
....................    } 
....................  
....................    if (base == 10 && sign == 1) 
....................       result = -result; 
....................  
....................    return(result); 
.................... } 
....................  
.................... signed int64 atoi64(char *s) 
.................... { 
....................    signed int64 result; 
....................    int8 sign, base, index; 
....................    char c; 
....................  
....................    index = 0; 
....................    sign = 0; 
....................    base = 10; 
....................    result = 0; 
....................  
....................    if (!s) 
....................       return 0; 
....................    c = s[index++]; 
....................  
....................    // increase index if either positive or negative sign is detected 
....................    if (c == '-') 
....................    { 
....................       sign = 1;         // Set the sign to negative 
....................       c = s[index++]; 
....................    } 
....................    else if (c == '+') 
....................    { 
....................       c = s[index++]; 
....................    } 
....................  
....................    if (c >= '0' && c <= '9') 
....................    { 
....................       if (c == '0' && (s[index] == 'x' || s[index] == 'X')) 
....................       { 
....................          base = 16; 
....................          index++; 
....................          c = s[index++]; 
....................       } 
....................  
....................       // The number is a decimal number 
....................       if (base == 10) 
....................       { 
....................          while (c >= '0' && c <= '9') { 
....................             result = (result << 1) + (result << 3);  // result *= 10; 
....................             result += (c - '0'); 
....................             c = s[index++]; 
....................          } 
....................       } 
....................       else if (base == 16)    // The number is a hexa number 
....................       { 
....................          c = toupper(c); 
....................          while ((c >= '0' && c <= '9') || (c >= 'A' && c <='F')) 
....................          { 
....................             if (c >= '0' && c <= '9') 
....................                result = (result << 4) + (c - '0'); 
....................             else 
....................                result = (result << 4) + (c - 'A' + 10); 
....................  
....................             c = s[index++];c = toupper(c); 
....................          } 
....................       } 
....................    } 
....................  
....................    if (base == 10 && sign == 1) 
....................       result = -result; 
....................  
....................    return(result); 
.................... } 
.................... #endif 
....................  
.................... char * itoa(signed int32 num, unsigned int base, char * s) 
.................... { 
....................      unsigned int32 temp=1; 
....................      unsigned int8 i,sign=0,cnt=0; 
....................      char c; 
....................  
....................      if(num<0) { 
....................          sign=1;        // Check for negative number 
....................          num*=-1; 
....................      } 
....................  
....................      while(temp>0) { 
....................          temp=(num/base); 
....................          s[cnt]=(num%base)+'0';    // Conversion 
....................  
....................          if(s[cnt]>0x39) 
....................             s[cnt]+=0x7; 
....................  
....................          cnt++; 
....................          num=temp; 
....................      } 
....................  
....................      if(sign==1) { 
....................          s[cnt]=0x2D;      // Negative sign 
....................          cnt++; 
....................      } 
....................  
....................      for(i = 0;i<(int8)(cnt/2);i++) { 
....................  
....................          c=s[i]; 
....................          s[i]=s[cnt-i-1];        // Reverse the number 
....................          s[cnt-i-1]=c; 
....................      } 
....................      s[cnt]='\0';     // End the string 
....................      return s; 
.................... } 
....................  
.................... #if !defined(__PCD__) 
.................... float32 strtod(char *s,char *endptr) { 
....................    float32 pow10 = 1.0; 
....................    float32 result = 0.0; 
....................    unsigned int8 sign = 0, point = 0; 
....................    char c; 
....................    unsigned int8 ptr = 0; 
....................  
....................    if (!s) 
....................       return 0; 
....................    c=s[ptr++]; 
....................  
....................  
....................    while((c>='0' && c<='9') || c=='+' || c=='-' || c=='.') { 
....................       if(c == '-') { 
....................          sign = 1; 
....................          c = s[ptr++]; 
....................       } 
....................  
....................       while((c >= '0' && c <= '9') && point == 0) { 
....................          result = 10*result + c - '0'; 
....................          c = s[ptr++]; 
....................       } 
....................  
....................       if (c == '.') { 
....................          point = 1; 
....................          c = s[ptr++]; 
....................       } 
....................  
....................       while((c >= '0' && c <= '9') && point == 1) { 
....................          pow10 = pow10*10; 
....................          result += (c - '0')/pow10; 
....................          c = s[ptr++]; 
....................       } 
....................  
....................       if (c == '+') { 
....................          c = s[ptr++]; 
....................       } 
....................    } 
....................  
....................    if (sign == 1) 
....................       result = -1*result; 
....................    if(endptr) 
....................    { 
....................       if (ptr) { 
....................          ptr--; 
....................        #IF LONG_POINTERS  
....................          *((long *)endptr)= s+ptr;  
....................        #ELSE 
....................          *((char *)endptr)=s+ptr; 
....................        #ENDIF 
....................       } 
....................       else 
....................       { 
....................       #IF LONG_POINTERS 
....................       *((long *)endptr)= s;  
....................       #ELSE 
....................       *((char *)endptr)=s; 
....................       #ENDIF 
....................       } 
....................    } 
....................  
....................    return(result); 
.................... } 
.................... #endif 
....................  
.................... #if defined(__PCD__) 
.................... float32 strtof(char *s,char *endptr) 
.................... { 
....................    float32 pow10 = 1.0; 
....................    float32 result = 0.0; 
....................    unsigned int8 sign = 0, point = 0; 
....................    char c; 
....................    unsigned int8 ptr = 0; 
....................  
....................    if (!s) 
....................       return 0; 
....................    c=s[ptr++]; 
....................  
....................  
....................    while((c>='0' && c<='9') || c=='+' || c=='-' || c=='.') { 
....................       if(c == '-') { 
....................          sign = 1; 
....................          c = s[ptr++]; 
....................       } 
....................  
....................       while((c >= '0' && c <= '9') && point == 0) { 
....................          result = 10*result + c - '0'; 
....................          c = s[ptr++]; 
....................       } 
....................  
....................       if (c == '.') { 
....................          point = 1; 
....................          c = s[ptr++]; 
....................       } 
....................  
....................       while((c >= '0' && c <= '9') && point == 1) { 
....................          pow10 = pow10*10; 
....................          result += (c - '0')/pow10; 
....................          c = s[ptr++]; 
....................       } 
....................  
....................       if (c == '+') { 
....................          c = s[ptr++]; 
....................       } 
....................    } 
....................  
....................    if (sign == 1) 
....................       result = -1*result; 
....................    if(endptr) 
....................    { 
....................       if (ptr) { 
....................          ptr--; 
....................        #IF LONG_POINTERS  
....................          *((long *)endptr)= s+ptr;  
....................        #ELSE 
....................          *((char *)endptr)=s+ptr; 
....................        #ENDIF 
....................       } 
....................       else 
....................       { 
....................       #IF LONG_POINTERS 
....................       *((long *)endptr)= s;  
....................       #ELSE 
....................       *((char *)endptr)=s; 
....................       #ENDIF 
....................       } 
....................    } 
....................  
....................    return(result); 
.................... } 
....................  
.................... float48 strtof48(char *s,char *endptr) 
.................... { 
....................    float48 pow10 = 1.0; 
....................    float48 result = 0.0; 
....................    unsigned int8 sign = 0, point = 0; 
....................    char c; 
....................    unsigned int8 ptr = 0; 
....................  
....................    if (!s) 
....................       return 0; 
....................    c=s[ptr++]; 
....................  
....................  
....................    while((c>='0' && c<='9') || c=='+' || c=='-' || c=='.') { 
....................       if(c == '-') { 
....................          sign = 1; 
....................          c = s[ptr++]; 
....................       } 
....................  
....................       while((c >= '0' && c <= '9') && point == 0) { 
....................          result = 10*result + c - '0'; 
....................          c = s[ptr++]; 
....................       } 
....................  
....................       if (c == '.') { 
....................          point = 1; 
....................          c = s[ptr++]; 
....................       } 
....................  
....................       while((c >= '0' && c <= '9') && point == 1) { 
....................          pow10 = pow10*10; 
....................          result += (c - '0')/pow10; 
....................          c = s[ptr++]; 
....................       } 
....................  
....................       if (c == '+') { 
....................          c = s[ptr++]; 
....................       } 
....................    } 
....................  
....................    if (sign == 1) 
....................       result = -1*result; 
....................    if(endptr) 
....................    { 
....................       if (ptr) { 
....................          ptr--; 
....................        #IF LONG_POINTERS  
....................          *((long *)endptr)= s+ptr;  
....................        #ELSE 
....................          *((char *)endptr)=s+ptr; 
....................        #ENDIF 
....................       } 
....................       else 
....................       { 
....................       #IF LONG_POINTERS 
....................       *((long *)endptr)= s;  
....................       #ELSE 
....................       *((char *)endptr)=s; 
....................       #ENDIF 
....................       } 
....................    } 
....................  
....................    return(result); 
.................... } 
....................  
.................... float64 strtod(char *s,char *endptr) 
.................... { 
....................    float64 pow10 = 1.0; 
....................    float64 result = 0.0; 
....................    unsigned int8 sign = 0, point = 0; 
....................    char c; 
....................    unsigned int8 ptr = 0; 
....................  
....................    if (!s) 
....................       return 0; 
....................    c=s[ptr++]; 
....................  
....................  
....................    while((c>='0' && c<='9') || c=='+' || c=='-' || c=='.') { 
....................       if(c == '-') { 
....................          sign = 1; 
....................          c = s[ptr++]; 
....................       } 
....................  
....................       while((c >= '0' && c <= '9') && point == 0) { 
....................          result = 10*result + c - '0'; 
....................          c = s[ptr++]; 
....................       } 
....................  
....................       if (c == '.') { 
....................          point = 1; 
....................          c = s[ptr++]; 
....................       } 
....................  
....................       while((c >= '0' && c <= '9') && point == 1) { 
....................          pow10 = pow10*10; 
....................          result += (c - '0')/pow10; 
....................          c = s[ptr++]; 
....................       } 
....................  
....................       if (c == '+') { 
....................          c = s[ptr++]; 
....................       } 
....................    } 
....................  
....................    if (sign == 1) 
....................       result = -1*result; 
....................    if(endptr) 
....................    { 
....................       if (ptr) { 
....................          ptr--; 
....................        #IF LONG_POINTERS  
....................          *((long *)endptr)= s+ptr;  
....................        #ELSE 
....................          *((char *)endptr)=s+ptr; 
....................        #ENDIF 
....................       } 
....................       else 
....................       { 
....................       #IF LONG_POINTERS 
....................       *((long *)endptr)= s;  
....................       #ELSE 
....................       *((char *)endptr)=s; 
....................       #ENDIF 
....................       } 
....................    } 
....................  
....................    return(result); 
.................... } 
.................... #endif 
....................  
.................... unsigned long strtoul(char *s, char *endptr, signed int base) 
.................... { 
....................    char *sc,*s1,*sd; 
....................    unsigned long x=0; 
....................    char sign; 
....................    char digits[]="0123456789abcdefghijklmnopqstuvwxyz"; 
....................    for(sc=s;isspace(*sc);++sc); 
....................    sign=*sc=='-'||*sc=='+'?*sc++:'+'; 
....................    if(sign=='-' || base <0 || base ==1|| base >36) // invalid base 
....................    goto StrtoulGO; 
....................  
....................    else if (base) 
....................    { 
....................       if(base==16 && *sc =='0'&&(sc[1]=='x' || sc[1]=='X')) 
....................          sc+=2; 
....................       if(base==8 && *sc =='0') 
....................          sc+=1; 
....................       if(base==2 && *sc =='0'&&sc[1]=='b') 
....................          sc+=2; 
....................  
....................    } 
....................    else if(*sc!='0') // base is 0, find base 
....................       base=10; 
....................    else if (sc[1]=='x' || sc[1]=='X') 
....................       base =16,sc+=2; 
....................    else if(sc[1]=='b') 
....................       base=2,sc+=2; 
....................    else 
....................       base=8; 
....................    for (s1=sc;*sc=='0';++sc);// skip leading zeroes 
....................    sd=memchr(digits,tolower(*sc),base); 
....................    for(; sd!=0; ) 
....................    { 
....................       x=x*base+(int16)(sd-digits); 
....................       ++sc; 
....................       sd=memchr(digits,tolower(*sc),base); 
....................    } 
....................    if(s1==sc) 
....................    { 
....................    StrtoulGO: 
....................       if (endptr) 
....................       { 
....................          #IF LONG_POINTERS 
....................          *((long *)endptr)= s;  
....................          #ELSE 
....................          *((char *)endptr)=s; 
....................          #ENDIF 
....................          } 
....................    return 0; 
....................    } 
....................    if (endptr) 
....................    { 
....................          #IF LONG_POINTERS 
....................          *((long *)endptr)= sc;  
....................          #ELSE 
....................          *((char *)endptr)=sc;  
....................          #ENDIF 
....................    } 
....................    return x; 
.................... } 
....................  
....................  
.................... signed long strtol(char *s,char *endptr, signed int base) 
.................... { 
....................    char *sc,*s1,*sd; 
....................    signed long x=0; 
....................    char sign; 
....................    char digits[]="0123456789abcdefghijklmnopqstuvwxyz"; 
....................    for(sc=s;isspace(*sc);++sc); 
....................    sign=*sc=='-'||*sc=='+'?*sc++:'+'; 
....................    if (base <0 || base ==1|| base >36) // invalid base 
....................    goto StrtolGO; 
....................    else if (base) 
....................    { 
....................       if(base==16 && *sc =='0'&&(sc[1]=='x' || sc[1]=='X')) 
....................          sc+=2; 
....................       if(base==8 && *sc =='0') 
....................          sc+=1; 
....................       if(base==2 && *sc =='0'&&sc[1]=='b') 
....................          sc+=2; 
....................  
....................    } 
....................    else if(*sc!='0') // base is 0, find base 
....................       base=10; 
....................    else if (sc[1]=='x' || sc[1]=='X') 
....................       base =16,sc+=2; 
....................    else if(sc[1]=='b') 
....................       base=2,sc+=2; 
....................    else 
....................       base=8; 
....................    for (s1=sc;*sc=='0';++sc);// skip leading zeroes 
....................  
....................    sd=memchr(digits,tolower(*sc),base); 
....................    for(;sd!=0;) 
....................    { 
....................       x=x*base+(int16)(sd-digits); 
....................       ++sc; 
....................       sd=memchr(digits,tolower(*sc),base); 
....................    } 
....................    if(s1==sc) 
....................    { 
....................    StrtolGO: 
....................       if (endptr) 
....................       { 
....................          #IF LONG_POINTERS 
....................          *((long *)endptr)= s;  
....................          #ELSE 
....................          *((char *)endptr)=s; 
....................          #ENDIF 
....................       } 
....................    return 0; 
....................    } 
....................    if(sign=='-') 
....................       x  =-x; 
....................    if (endptr) 
....................    { 
....................         #IF LONG_POINTERS 
....................          *((long *)endptr)= sc;  
....................         #ELSE 
....................         *((char *)endptr)=sc; 
....................         #ENDIF 
....................    } 
....................    return x; 
.................... } 
....................  
.................... signed int8 system(char *string) 
.................... { 
....................    return 0; 
.................... } 
....................  
.................... int8 mblen(char *s,size_t n) 
.................... { 
....................    return strlen(s); 
.................... } 
....................  
.................... int8 mbtowc(wchar_t *pwc,char *s,size_t n) 
.................... { 
....................    *pwc=*s; 
....................    return 1; 
.................... } 
....................  
.................... int8 wctomb(char *s,wchar_t wchar) 
.................... { 
....................    *s=wchar; 
....................    return 1; 
.................... } 
....................  
.................... size_t mbstowcs(wchar_t *pwcs,char *s,size_t n) 
.................... { 
....................    strncpy(pwcs,s,n); 
....................    return strlen(pwcs); 
.................... } 
....................  
.................... size_t wcstombs(char *s,wchar_t *pwcs,size_t n) 
.................... { 
....................    strncpy(s,pwcs,n); 
....................    return strlen(s); 
.................... } 
....................  
.................... //--------------------------------------------------------------------------- 
.................... // The random number implementation 
.................... //--------------------------------------------------------------------------- 
....................  
.................... unsigned int32 _Randseed; 
....................  
.................... unsigned int16 rand(void) 
.................... { 
....................    _Randseed = _Randseed * 1103515245 + 12345; 
....................    return ((unsigned int16)(_Randseed >> 16) % RAND_MAX); 
.................... } 
....................  
.................... void srand(unsigned int32 seed) 
.................... { 
....................    _Randseed = seed; 
.................... } 
....................  
.................... //--------------------------------------------------------------------------- 
.................... // Searching and sorting utilities implementation 
.................... //--------------------------------------------------------------------------- 
....................  
.................... typedef signed int8 (*_Cmpfun)(char * p1,char * p2); 
....................  
.................... void qsort(char * qdata, unsigned int qitems, unsigned int qsize, _Cmpfun cmp) { 
....................    unsigned int m,j,i,l; 
....................    int1 done; 
....................    BYTE t[16]; 
....................  
....................    m = qitems/2; 
....................    while( m > 0 ) { 
....................      for(j=0; j<(qitems-m); ++j) { 
....................         i = j; 
....................         do 
....................         { 
....................            done=TRUE; 
....................            l = i+m; 
....................            if( (*cmp)(qdata+i*qsize, qdata+l*qsize) > 0 ) { 
....................               memcpy(t, qdata+i*qsize, qsize); 
....................               memcpy(qdata+i*qsize, qdata+l*qsize, qsize); 
....................               memcpy(qdata+l*qsize, t, qsize); 
....................               if(m <= i) 
....................                 i -= m; 
....................                 done = FALSE; 
....................            } 
....................         } while(!done); 
....................      } 
....................      m = m/2; 
....................    } 
.................... } 
....................  
....................  
.................... char *bsearch(char *key, char *base, size_t num, size_t width,_Cmpfun cmp) 
.................... { 
....................    char *p, *q; 
....................    size_t n; 
....................    size_t pivot; 
....................    signed int val; 
....................  
....................    p = base; 
....................    n = num; 
....................  
....................    while (n > 0) 
....................    { 
....................       pivot = n >> 1; 
....................       q = p + width * pivot; 
....................  
....................       val = (*cmp)(key, q); 
....................  
....................       if (val < 0) 
....................          n = pivot; 
....................       else if (val == 0) 
....................          return ((char *)q); 
....................       else { 
....................          p = q + width; 
....................          n -= pivot + 1; 
....................       } 
....................    } 
....................  
....................    return NULL;      // There's no match 
.................... } 
....................  
....................  
.................... #endif 
....................  
.................... char key;            
.................... int num1 = 0;       
026F:  CLRF   2B
.................... char func = '+';     
0270:  MOVLW  2B
0271:  MOVWF  2C
.................... int num2 = 0;  
0272:  CLRF   2D
.................... char c11,c22; 
.................... int error; 
....................  
.................... disp_num(int numb)            //displays number on LCD 
.................... {    
....................    unsigned char UnitDigit  = 0;  //It will contain unit digit of numb 
*
0236:  CLRF   37
....................    unsigned char TenthDigit = 0;  //It will contain 10th position digit of numb 
0237:  CLRF   38
....................  
....................    if(numb<0) 
....................    { 
....................       numb = -1*numb;          // Make number positive 
....................       lcd_putc('-');    // Display a negative sign on LCD 
....................    } 
....................  
....................    TenthDigit = (numb/10);                     // Findout Tenth Digit 
0238:  MOVF   36,W
0239:  MOVWF  39
023A:  MOVLW  0A
023B:  MOVWF  3A
023C:  CALL   221
023D:  MOVF   78,W
023E:  MOVWF  38
....................  
....................    if( TenthDigit != 0)                     // If it is zero, then don't display 
023F:  MOVF   38,F
0240:  BTFSC  03.2
0241:  GOTO   247
....................       lcd_putc(TenthDigit+0x30);     // Make Char of TenthDigit and then display it on LCD 
0242:  MOVLW  30
0243:  ADDWF  38,W
0244:  MOVWF  39
0245:  MOVWF  3A
0246:  CALL   152
....................  
....................    UnitDigit = numb - TenthDigit*10; 
0247:  MOVF   38,W
0248:  MOVWF  39
0249:  MOVLW  0A
024A:  MOVWF  3A
024B:  CALL   0C7
024C:  MOVF   78,W
024D:  SUBWF  36,W
024E:  MOVWF  37
....................  
....................    lcd_putc(UnitDigit+0x30);     // Make Char of UnitDigit and then display it on LCD 
024F:  MOVLW  30
0250:  ADDWF  37,W
0251:  MOVWF  39
0252:  MOVWF  3A
0253:  CALL   152
.................... } 
0254:  RETLW  00
....................  
.................... DispError(int numb)           //displays differet error messages 
.................... { 
....................    lcd_init();              //clear display 
*
0187:  CALL   09D
....................    switch(numb) 
....................    { 
0188:  MOVF   37,W
0189:  BTFSC  03.2
018A:  GOTO   18F
018B:  XORLW  01
018C:  BTFSC  03.2
018D:  GOTO   19A
018E:  GOTO   1A5
....................    case 0:    lcd_putc("Wrong Input");break; 
018F:  CLRF   38
0190:  MOVF   38,W
0191:  CALL   01C
0192:  IORLW  00
0193:  BTFSC  03.2
0194:  GOTO   199
0195:  INCF   38,F
0196:  MOVWF  3A
0197:  CALL   152
0198:  GOTO   190
0199:  GOTO   1B0
....................    case 1:    lcd_putc("Wrong Function");break; 
019A:  CLRF   38
019B:  MOVF   38,W
019C:  CALL   02C
019D:  IORLW  00
019E:  BTFSC  03.2
019F:  GOTO   1A4
01A0:  INCF   38,F
01A1:  MOVWF  3A
01A2:  CALL   152
01A3:  GOTO   19B
01A4:  GOTO   1B0
....................    default:    lcd_putc("Wrong Input");break; 
01A5:  CLRF   38
01A6:  MOVF   38,W
01A7:  CALL   01C
01A8:  IORLW  00
01A9:  BTFSC  03.2
01AA:  GOTO   1AF
01AB:  INCF   38,F
01AC:  MOVWF  3A
01AD:  CALL   152
01AE:  GOTO   1A6
01AF:  GOTO   1B0
....................    } 
.................... } 
01B0:  RETLW  00
.................... int get_num(char ch)         //convert char into int 
.................... { 
....................    int num = 0; 
01B1:  CLRF   36
....................  
....................    switch(ch) 
....................    { 
01B2:  MOVF   35,W
01B3:  XORLW  30
01B4:  BTFSC  03.2
01B5:  GOTO   1D5
01B6:  XORLW  01
01B7:  BTFSC  03.2
01B8:  GOTO   1D7
01B9:  XORLW  03
01BA:  BTFSC  03.2
01BB:  GOTO   1DA
01BC:  XORLW  01
01BD:  BTFSC  03.2
01BE:  GOTO   1DD
01BF:  XORLW  07
01C0:  BTFSC  03.2
01C1:  GOTO   1E0
01C2:  XORLW  01
01C3:  BTFSC  03.2
01C4:  GOTO   1E3
01C5:  XORLW  03
01C6:  BTFSC  03.2
01C7:  GOTO   1E6
01C8:  XORLW  01
01C9:  BTFSC  03.2
01CA:  GOTO   1E9
01CB:  XORLW  0F
01CC:  BTFSC  03.2
01CD:  GOTO   1EC
01CE:  XORLW  01
01CF:  BTFSC  03.2
01D0:  GOTO   1EF
01D1:  XORLW  7A
01D2:  BTFSC  03.2
01D3:  GOTO   1F2
01D4:  GOTO   1F6
....................       case '0': num = 0; break; 
01D5:  CLRF   36
01D6:  GOTO   1FB
....................       case '1': num = 1; break; 
01D7:  MOVLW  01
01D8:  MOVWF  36
01D9:  GOTO   1FB
....................       case '2': num = 2; break; 
01DA:  MOVLW  02
01DB:  MOVWF  36
01DC:  GOTO   1FB
....................       case '3': num = 3; break; 
01DD:  MOVLW  03
01DE:  MOVWF  36
01DF:  GOTO   1FB
....................       case '4': num = 4; break; 
01E0:  MOVLW  04
01E1:  MOVWF  36
01E2:  GOTO   1FB
....................       case '5': num = 5; break; 
01E3:  MOVLW  05
01E4:  MOVWF  36
01E5:  GOTO   1FB
....................       case '6': num = 6; break; 
01E6:  MOVLW  06
01E7:  MOVWF  36
01E8:  GOTO   1FB
....................       case '7': num = 7; break; 
01E9:  MOVLW  07
01EA:  MOVWF  36
01EB:  GOTO   1FB
....................       case '8': num = 8; break; 
01EC:  MOVLW  08
01ED:  MOVWF  36
01EE:  GOTO   1FB
....................       case '9': num = 9; break; 
01EF:  MOVLW  09
01F0:  MOVWF  36
01F1:  GOTO   1FB
....................       case 'C': lcd_init(); num = Error; break;  //this is used as a clear screen and then reset by setting error 
01F2:  CALL   09D
01F3:  MOVF   30,W
01F4:  MOVWF  36
01F5:  GOTO   1FB
....................       default: DispError(0); num = Error; break;       //it means wrong input 
01F6:  CLRF   37
01F7:  CALL   187
01F8:  MOVF   30,W
01F9:  MOVWF  36
01FA:  GOTO   1FB
....................    } 
....................    return num; 
01FB:  MOVF   36,W
01FC:  MOVWF  78
.................... } 
01FD:  RETLW  00
....................  
.................... char get_func(char chf)            //detects the errors in inputted function 
.................... { 
....................    if(chf=='C')                   //if clear screen then clear the LCD and reset 
01FE:  MOVF   35,W
01FF:  SUBLW  43
0200:  BTFSS  03.2
0201:  GOTO   206
....................    {  
....................       lcd_init();          //clear display 
0202:  CALL   09D
....................       return 'e';  
0203:  MOVLW  65
0204:  MOVWF  78
0205:  GOTO   21E
....................    } 
....................     
....................    if( chf!='+' && chf!='-' && chf!='x' && chf!='/' )  //if input is not from allowed funtions then show error 
0206:  MOVF   35,W
0207:  SUBLW  2B
0208:  BTFSC  03.2
0209:  GOTO   21C
020A:  MOVF   35,W
020B:  SUBLW  2D
020C:  BTFSC  03.2
020D:  GOTO   21C
020E:  MOVF   35,W
020F:  SUBLW  78
0210:  BTFSC  03.2
0211:  GOTO   21C
0212:  MOVF   35,W
0213:  SUBLW  2F
0214:  BTFSC  03.2
0215:  GOTO   21C
....................    {  
....................       DispError(1);  
0216:  MOVLW  01
0217:  MOVWF  37
0218:  CALL   187
....................       return 'e';  
0219:  MOVLW  65
021A:  MOVWF  78
021B:  GOTO   21E
....................    } 
....................  
....................    return chf;                        //function is correct so return the correct function 
021C:  MOVF   35,W
021D:  MOVWF  78
.................... } 
021E:  BCF    0A.3
021F:  BCF    0A.4
0220:  GOTO   292 (RETURN)
....................  
.................... void main() 
.................... {    
*
0255:  CLRF   04
0256:  BCF    03.7
0257:  MOVLW  1F
0258:  ANDWF  03,F
0259:  MOVLW  19
025A:  BSF    03.5
025B:  MOVWF  19
025C:  MOVLW  A6
025D:  MOVWF  18
025E:  MOVLW  90
025F:  BCF    03.5
0260:  MOVWF  18
0261:  BSF    03.5
0262:  BSF    1F.0
0263:  BSF    1F.1
0264:  BSF    1F.2
0265:  BCF    1F.3
0266:  MOVLW  07
0267:  MOVWF  1C
....................    char key;           // Key char for keeping record of pressed key 
....................    int num1 = 0;       // First number 
*
0273:  CLRF   32
....................    char func = '+';    // Function to be performed among two numbers 
0274:  MOVLW  2B
0275:  MOVWF  33
....................    int num2 = 0;       // Second number 
0276:  CLRF   34
....................  
....................    kbd_init();       // Initialize Keypad 
0277:  GOTO   03F
....................    lcd_init();         // Initialize LCD 
0278:  CALL   09D
....................  
....................    while(1) 
....................    {  
....................      //get numb1 
....................      key = kbd_getc(); 
0279:  CALL   0EC
027A:  MOVF   78,W
027B:  MOVWF  31
....................      lcd_init();          // Clear LCD screen  
027C:  CALL   09D
....................     lcd_putc(key);       // Echo the key pressed to LCD 
027D:  MOVF   31,W
027E:  MOVWF  3A
027F:  CALL   152
....................     num1 = get_num(key);       // Get int number from char value, it checks for wrong input as well 
0280:  MOVF   31,W
0281:  MOVWF  35
0282:  CALL   1B1
0283:  MOVF   78,W
0284:  MOVWF  32
....................       
....................     if(num1!=Error)            // If correct input then proceed, num1==Error means wrong input 
0285:  MOVF   30,W
0286:  SUBWF  32,W
0287:  BTFSC  03.2
0288:  GOTO   2E8
....................     { 
....................        //get function 
....................        key = kbd_getc(); 
0289:  CALL   0EC
028A:  MOVF   78,W
028B:  MOVWF  31
....................        lcd_putc(key);             //Echo the key pressed to LCD 
028C:  MOVF   31,W
028D:  MOVWF  3A
028E:  CALL   152
....................        func = get_func(key);            //it checks for wrong func 
028F:  MOVF   31,W
0290:  MOVWF  35
0291:  GOTO   1FE
0292:  MOVF   78,W
0293:  MOVWF  33
....................         
....................        if(func!='e')                    //if correct input then proceed, func=='e' means wrong input 
0294:  MOVF   33,W
0295:  SUBLW  65
0296:  BTFSC  03.2
0297:  GOTO   2E8
....................        { 
....................           //get numb2 
....................           key = kbd_getc(); 
0298:  CALL   0EC
0299:  MOVF   78,W
029A:  MOVWF  31
....................           lcd_putc(key);         //Echo the key pressed to LCD 
029B:  MOVF   31,W
029C:  MOVWF  3A
029D:  CALL   152
....................           num2 = get_num(key);         //Get int number from char value, it checks for wrong input as well 
029E:  MOVF   31,W
029F:  MOVWF  35
02A0:  CALL   1B1
02A1:  MOVF   78,W
02A2:  MOVWF  34
....................            
....................           if(num2!=Error)              //if correct input then proceed, num2==Error means wrong input 
02A3:  MOVF   30,W
02A4:  SUBWF  34,W
02A5:  BTFSC  03.2
02A6:  GOTO   2E8
....................           { 
....................              //get equal sign 
....................              key = kbd_getc(); 
02A7:  CALL   0EC
02A8:  MOVF   78,W
02A9:  MOVWF  31
....................              lcd_putc(key);     //Echo the key pressed to LCD 
02AA:  MOVF   31,W
02AB:  MOVWF  3A
02AC:  CALL   152
....................               
....................              if(key == '=')           //if = is pressed then proceed 
02AD:  MOVF   31,W
02AE:  SUBLW  3D
02AF:  BTFSS  03.2
02B0:  GOTO   2E0
....................              { 
....................                 switch(func)         //switch on function 
....................                 { 
02B1:  MOVF   33,W
02B2:  XORLW  2B
02B3:  BTFSC  03.2
02B4:  GOTO   2BF
02B5:  XORLW  06
02B6:  BTFSC  03.2
02B7:  GOTO   2C5
02B8:  XORLW  55
02B9:  BTFSC  03.2
02BA:  GOTO   2CB
02BB:  XORLW  57
02BC:  BTFSC  03.2
02BD:  GOTO   2D5
02BE:  GOTO   2DF
....................                 case '+': disp_num(num1+num2); break; 
02BF:  MOVF   34,W
02C0:  ADDWF  32,W
02C1:  MOVWF  35
02C2:  MOVWF  36
02C3:  CALL   236
02C4:  GOTO   2DF
....................                 case '-': disp_num(num1-num2); break; 
02C5:  MOVF   34,W
02C6:  SUBWF  32,W
02C7:  MOVWF  35
02C8:  MOVWF  36
02C9:  CALL   236
02CA:  GOTO   2DF
....................                 case 'x': disp_num(num1*num2); break; 
02CB:  MOVF   32,W
02CC:  MOVWF  39
02CD:  MOVF   34,W
02CE:  MOVWF  3A
02CF:  CALL   0C7
02D0:  MOVF   78,W
02D1:  MOVWF  35
02D2:  MOVWF  36
02D3:  CALL   236
02D4:  GOTO   2DF
....................                 case '/': disp_num(num1/num2); break; 
02D5:  MOVF   32,W
02D6:  MOVWF  39
02D7:  MOVF   34,W
02D8:  MOVWF  3A
02D9:  CALL   221
02DA:  MOVF   78,W
02DB:  MOVWF  35
02DC:  MOVWF  36
02DD:  CALL   236
02DE:  GOTO   2DF
....................                 } 
....................              } 
....................              else                  //key other then = here means error wrong input 
02DF:  GOTO   2E8
....................              {  
....................                 if(key == 'C')       //if clear screen is pressed then clear screen and reset 
02E0:  MOVF   31,W
02E1:  SUBLW  43
02E2:  BTFSS  03.2
02E3:  GOTO   2E6
....................                   lcd_init(); // Clear LCD screen  
02E4:  CALL   09D
....................                 else 
02E5:  GOTO   2E8
....................                   DispError(0);      //Display wrong input error 
02E6:  CLRF   37
02E7:  CALL   187
....................              }                                  
....................           } 
....................        } 
....................      } 
....................    } 
02E8:  GOTO   279
.................... } 
....................  
02E9:  SLEEP

Configuration Fuses:
   Word  1: 3939   XT NOWDT NOPUT NODEBUG NOPROTECT NOBROWNOUT NOLVP NOCPD WRT_50%
